target datalayout = "e-m:e-p270:32:32-p271:32:32-p272:64:64-i64:64-i128:128-f80:128-n8:16:32:64-S128"
target triple = "x86_64-pc-linux-gnu"

%"class.std::vector.83" = type { %"struct.std::_Vector_base.84" }
%"struct.std::_Vector_base.84" = type { %"struct.std::_Vector_base<const Luau::Type *, std::allocator<const Luau::Type *>>::_Vector_impl" }
%"struct.std::_Vector_base<const Luau::Type *, std::allocator<const Luau::Type *>>::_Vector_impl" = type { %"struct.std::_Vector_base<const Luau::Type *, std::allocator<const Luau::Type *>>::_Vector_impl_data" }
%"struct.std::_Vector_base<const Luau::Type *, std::allocator<const Luau::Type *>>::_Vector_impl_data" = type { ptr, ptr, ptr }
%"struct.Luau::CannotAssignToNever" = type <{ ptr, %"class.std::vector.83", i32, [4 x i8] }>

; Function Attrs: mustprogress nounwind uwtable
define linkonce_odr dso_local noundef nonnull align 8 dereferenceable(8) ptr @_ZNKSt6vectorIPKN4Luau4TypeESaIS3_EEixEm(ptr noundef nonnull align 8 dereferenceable(24) %0, i64 noundef %1) #2 comdat align 2 {
  %3 = alloca ptr, align 8
  %4 = alloca i64, align 8
  store ptr %0, ptr %3, align 8, !tbaa !290
  store i64 %1, ptr %4, align 8, !tbaa !36
  %5 = load ptr, ptr %3, align 8
  %6 = getelementptr inbounds nuw %"struct.std::_Vector_base.84", ptr %5, i32 0, i32 0
  %7 = getelementptr inbounds nuw %"struct.std::_Vector_base<const Luau::Type *, std::allocator<const Luau::Type *>>::_Vector_impl_data", ptr %6, i32 0, i32 0
  %8 = load ptr, ptr %7, align 8, !tbaa !293
  %9 = load i64, ptr %4, align 8, !tbaa !36
  %10 = getelementptr inbounds nuw ptr, ptr %8, i64 %9
  ret ptr %10
}

; Function Attrs: mustprogress nounwind uwtable
define linkonce_odr dso_local noundef i64 @_ZNKSt6vectorIPKN4Luau4TypeESaIS3_EE4sizeEv(ptr noundef nonnull align 8 dereferenceable(24) %0) #2 comdat align 2 {
  %2 = alloca ptr, align 8
  store ptr %0, ptr %2, align 8, !tbaa !290
  %3 = load ptr, ptr %2, align 8
  %4 = getelementptr inbounds nuw %"struct.std::_Vector_base.84", ptr %3, i32 0, i32 0
  %5 = getelementptr inbounds nuw %"struct.std::_Vector_base<const Luau::Type *, std::allocator<const Luau::Type *>>::_Vector_impl_data", ptr %4, i32 0, i32 1
  %6 = load ptr, ptr %5, align 8, !tbaa !292
  %7 = getelementptr inbounds nuw %"struct.std::_Vector_base.84", ptr %3, i32 0, i32 0
  %8 = getelementptr inbounds nuw %"struct.std::_Vector_base<const Luau::Type *, std::allocator<const Luau::Type *>>::_Vector_impl_data", ptr %7, i32 0, i32 0
  %9 = load ptr, ptr %8, align 8, !tbaa !293
  %10 = ptrtoint ptr %6 to i64
  %11 = ptrtoint ptr %9 to i64
  %12 = sub i64 %10, %11
  %13 = sdiv exact i64 %12, 8
  ret i64 %13
}

; Function Attrs: mustprogress uwtable
define dso_local noundef zeroext i1 @_ZNK4Luau19CannotAssignToNevereqERKS0_(ptr noundef nonnull align 8 dereferenceable(36) %0, ptr noundef nonnull align 8 dereferenceable(36) %1) #3 align 2 {
  %3 = alloca i1, align 1
  %4 = alloca ptr, align 8
  %5 = alloca ptr, align 8
  %6 = alloca i64, align 8
  %7 = alloca i32, align 4
  store ptr %0, ptr %4, align 8, !tbaa !360
  store ptr %1, ptr %5, align 8, !tbaa !360
  %8 = load ptr, ptr %4, align 8
  %9 = getelementptr inbounds nuw %"struct.Luau::CannotAssignToNever", ptr %8, i32 0, i32 1
  %10 = call noundef i64 @_ZNKSt6vectorIPKN4Luau4TypeESaIS3_EE4sizeEv(ptr noundef nonnull align 8 dereferenceable(24) %9) #5
  %11 = load ptr, ptr %5, align 8, !tbaa !360
  %12 = getelementptr inbounds nuw %"struct.Luau::CannotAssignToNever", ptr %11, i32 0, i32 1
  %13 = call noundef i64 @_ZNKSt6vectorIPKN4Luau4TypeESaIS3_EE4sizeEv(ptr noundef nonnull align 8 dereferenceable(24) %12) #5
  %14 = icmp ne i64 %10, %13
  br i1 %14, label %15, label %16

15:                                               ; preds = %2
  store i1 false, ptr %3, align 1
  br label %57

16:                                               ; preds = %2
  call void @llvm.lifetime.start.p0(i64 8, ptr %6) #5
  store i64 0, ptr %6, align 8, !tbaa !36
  br label %17

17:                                               ; preds = %36, %16
  %18 = load i64, ptr %6, align 8, !tbaa !36
  %19 = getelementptr inbounds nuw %"struct.Luau::CannotAssignToNever", ptr %8, i32 0, i32 1
  %20 = call noundef i64 @_ZNKSt6vectorIPKN4Luau4TypeESaIS3_EE4sizeEv(ptr noundef nonnull align 8 dereferenceable(24) %19) #5
  %21 = icmp ult i64 %18, %20
  br i1 %21, label %23, label %22

22:                                               ; preds = %17
  store i32 2, ptr %7, align 4
  br label %39

23:                                               ; preds = %17
  %24 = getelementptr inbounds nuw %"struct.Luau::CannotAssignToNever", ptr %8, i32 0, i32 1
  %25 = load i64, ptr %6, align 8, !tbaa !36
  %26 = call noundef nonnull align 8 dereferenceable(8) ptr @_ZNKSt6vectorIPKN4Luau4TypeESaIS3_EEixEm(ptr noundef nonnull align 8 dereferenceable(24) %24, i64 noundef %25) #5
  %27 = load ptr, ptr %26, align 8, !tbaa !62
  %28 = load ptr, ptr %5, align 8, !tbaa !360
  %29 = getelementptr inbounds nuw %"struct.Luau::CannotAssignToNever", ptr %28, i32 0, i32 1
  %30 = load i64, ptr %6, align 8, !tbaa !36
  %31 = call noundef nonnull align 8 dereferenceable(8) ptr @_ZNKSt6vectorIPKN4Luau4TypeESaIS3_EEixEm(ptr noundef nonnull align 8 dereferenceable(24) %29, i64 noundef %30) #5
  %32 = load ptr, ptr %31, align 8, !tbaa !62
  %33 = call noundef zeroext i1 @_ZNK4Luau4TypeneERKS0_(ptr noundef nonnull align 8 dereferenceable(400) %27, ptr noundef nonnull align 8 dereferenceable(400) %32)
  br i1 %33, label %34, label %35

34:                                               ; preds = %23
  store i1 false, ptr %3, align 1
  store i32 1, ptr %7, align 4
  br label %39

35:                                               ; preds = %23
  br label %36

36:                                               ; preds = %35
  %37 = load i64, ptr %6, align 8, !tbaa !36
  %38 = add i64 %37, 1
  store i64 %38, ptr %6, align 8, !tbaa !36
  br label %17, !llvm.loop !362

39:                                               ; preds = %34, %22
  call void @llvm.lifetime.end.p0(i64 8, ptr %6) #5
  %40 = load i32, ptr %7, align 4
  switch i32 %40, label %59 [
    i32 2, label %41
    i32 1, label %57
  ]

41:                                               ; preds = %39
  %42 = getelementptr inbounds nuw %"struct.Luau::CannotAssignToNever", ptr %8, i32 0, i32 0
  %43 = load ptr, ptr %42, align 8, !tbaa !363
  %44 = load ptr, ptr %5, align 8, !tbaa !360
  %45 = getelementptr inbounds nuw %"struct.Luau::CannotAssignToNever", ptr %44, i32 0, i32 0
  %46 = load ptr, ptr %45, align 8, !tbaa !363
  %47 = call noundef zeroext i1 @_ZNK4Luau4TypeeqERKS0_(ptr noundef nonnull align 8 dereferenceable(400) %43, ptr noundef nonnull align 8 dereferenceable(400) %46)
  br i1 %47, label %48, label %55

48:                                               ; preds = %41
  %49 = getelementptr inbounds nuw %"struct.Luau::CannotAssignToNever", ptr %8, i32 0, i32 2
  %50 = load i32, ptr %49, align 8, !tbaa !366
  %51 = load ptr, ptr %5, align 8, !tbaa !360
  %52 = getelementptr inbounds nuw %"struct.Luau::CannotAssignToNever", ptr %51, i32 0, i32 2
  %53 = load i32, ptr %52, align 8, !tbaa !366
  %54 = icmp eq i32 %50, %53
  br label %55

55:                                               ; preds = %48, %41
  %56 = phi i1 [ false, %41 ], [ %54, %48 ]
  store i1 %56, ptr %3, align 1
  br label %57

57:                                               ; preds = %55, %39, %15
  %58 = load i1, ptr %3, align 1
  ret i1 %58

59:                                               ; preds = %39
  unreachable
}