; Function Attrs: mustprogress uwtable
define dso_local noundef zeroext i1 @_ZNK4Luau19CannotAssignToNevereqERKS0_(ptr noundef nonnull readonly align 8 captures(none) dereferenceable(36) %0, ptr noundef nonnull readonly align 8 captures(none) dereferenceable(36) %1) local_unnamed_addr #5 align 2 {
  %3 = getelementptr inbounds nuw i8, ptr %0, i64 8
  %4 = getelementptr inbounds nuw i8, ptr %0, i64 16
  %5 = load ptr, ptr %4, align 8, !tbaa !177
  %6 = load ptr, ptr %3, align 8, !tbaa !180
  %7 = ptrtoint ptr %5 to i64
  %8 = ptrtoint ptr %6 to i64
  %9 = sub i64 %7, %8
  %10 = getelementptr inbounds nuw i8, ptr %1, i64 8
  %11 = getelementptr inbounds nuw i8, ptr %1, i64 16
  %12 = load ptr, ptr %11, align 8, !tbaa !177
  %13 = load ptr, ptr %10, align 8, !tbaa !180
  %14 = ptrtoint ptr %12 to i64
  %15 = ptrtoint ptr %13 to i64
  %16 = sub i64 %14, %15
  %.not = icmp eq i64 %9, %16
  br i1 %.not, label %.preheader, label %.loopexit

.preheader:                                       ; preds = %2
  %.not16 = icmp eq ptr %5, %6
  br i1 %.not16, label %._crit_edge, label %.lr.ph

17:                                               ; preds = %.lr.ph
  %18 = add nuw i64 %.01015, 1
  %19 = load ptr, ptr %4, align 8, !tbaa !177
  %20 = load ptr, ptr %3, align 8, !tbaa !180
  %21 = ptrtoint ptr %19 to i64
  %22 = ptrtoint ptr %20 to i64
  %23 = sub i64 %21, %22
  %24 = ashr exact i64 %23, 3
  %25 = icmp ult i64 %18, %24
  br i1 %25, label %.lr.ph, label %._crit_edge, !llvm.loop !226

.lr.ph:                                           ; preds = %.preheader, %17
  %26 = phi ptr [ %20, %17 ], [ %6, %.preheader ]
  %.01015 = phi i64 [ %18, %17 ], [ 0, %.preheader ]
  %27 = getelementptr inbounds nuw ptr, ptr %26, i64 %.01015
  %28 = load ptr, ptr %27, align 8, !tbaa !182
  %29 = load ptr, ptr %10, align 8, !tbaa !180
  %30 = getelementptr inbounds nuw ptr, ptr %29, i64 %.01015
  %31 = load ptr, ptr %30, align 8, !tbaa !182
  %32 = tail call noundef zeroext i1 @_ZNK4Luau4TypeneERKS0_(ptr noundef nonnull align 8 dereferenceable(400) %28, ptr noundef nonnull align 8 dereferenceable(400) %31)
  br i1 %32, label %.loopexit, label %17

._crit_edge:                                      ; preds = %17, %.preheader
  %33 = load ptr, ptr %0, align 8, !tbaa !227
  %34 = load ptr, ptr %1, align 8, !tbaa !227
  %35 = tail call noundef zeroext i1 @_ZNK4Luau4TypeeqERKS0_(ptr noundef nonnull align 8 dereferenceable(400) %33, ptr noundef nonnull align 8 dereferenceable(400) %34)
  %36 = getelementptr inbounds nuw i8, ptr %0, i64 32
  %37 = load i32, ptr %36, align 8
  %38 = getelementptr inbounds nuw i8, ptr %1, i64 32
  %39 = load i32, ptr %38, align 8
  %40 = icmp eq i32 %37, %39
  %41 = select i1 %35, i1 %40, i1 false
  br label %.loopexit

.loopexit:                                        ; preds = %.lr.ph, %2, %._crit_edge
  %.011 = phi i1 [ %41, %._crit_edge ], [ false, %2 ], [ false, %.lr.ph ]
  ret i1 %.011
}